target datalayout = "e-m:e-p270:32:32-p271:32:32-p272:64:64-i64:64-i128:128-f80:128-n8:16:32:64-S128"
target triple = "x86_64-pc-linux-gnu"

%struct._packet_info = type { ptr, ptr, i32, i32, %struct.nstime_t, %struct.nstime_t, %struct.nstime_t, i8, ptr, ptr, ptr, ptr, %struct._address, %struct._address, %struct._address, %struct._address, %struct._address, %struct._address, i32, ptr, i8, [3 x i8], %struct.anon.1, i32, i32, i32, i32, ptr, i8, ptr, ptr, i16, i16, i32, i32, i16, i32, i32, ptr, ptr, ptr, i8, i8, i16, i16, i16, i32, i16, i16, ptr, ptr, ptr, ptr, ptr, i32, i32 }
%struct.nstime_t = type { i64, i32 }
%struct._address = type { i32, i32, ptr, ptr }
%struct.anon.1 = type { i8, [3 x i8] }

@hf_amqp_method_queue_declare_ok_queue = internal global i32 0, align 4
@hf_amqp_method_queue_declare_ok_message_count = internal global i32 0, align 4
@hf_amqp_method_queue_declare_ok_consumer_count = internal global i32 0, align 4
@.str.1479 = private unnamed_addr constant [6 x i8] c"q=%s \00", align 1

; Function Attrs: null_pointer_is_valid sspstrong uwtable
define internal i32 @dissect_amqp_0_9_method_queue_declare_ok(ptr noundef %0, ptr noundef %1, i32 noundef %2, ptr noundef %3) #0 {
  %5 = alloca ptr, align 8
  %6 = alloca ptr, align 8
  %7 = alloca i32, align 4
  %8 = alloca ptr, align 8
  %9 = alloca ptr, align 8
  store ptr %0, ptr %5, align 8
  store ptr %1, ptr %6, align 8
  store i32 %2, ptr %7, align 4
  store ptr %3, ptr %8, align 8
  call void @llvm.lifetime.start.p0(i64 8, ptr %9) #11
  %10 = load ptr, ptr %8, align 8
  %11 = load i32, ptr @hf_amqp_method_queue_declare_ok_queue, align 4
  %12 = load ptr, ptr %5, align 8
  %13 = load i32, ptr %7, align 4
  %14 = add i32 %13, 1
  %15 = load ptr, ptr %5, align 8
  %16 = load i32, ptr %7, align 4
  %17 = call zeroext i8 @tvb_get_uint8(ptr noundef %15, i32 noundef %16)
  %18 = zext i8 %17 to i32
  %19 = load ptr, ptr %6, align 8
  %20 = getelementptr inbounds nuw %struct._packet_info, ptr %19, i32 0, i32 51
  %21 = load ptr, ptr %20, align 8
  %22 = call ptr @proto_tree_add_item_ret_string(ptr noundef %10, i32 noundef %11, ptr noundef %12, i32 noundef %14, i32 noundef %18, i32 noundef 0, ptr noundef %21, ptr noundef %9)
  %23 = load ptr, ptr %6, align 8
  %24 = getelementptr inbounds nuw %struct._packet_info, ptr %23, i32 0, i32 1
  %25 = load ptr, ptr %24, align 8
  %26 = load ptr, ptr %9, align 8
  call void (ptr, i32, ptr, ...) @col_append_fstr(ptr noundef %25, i32 noundef 25, ptr noundef @.str.1479, ptr noundef %26)
  %27 = load ptr, ptr %5, align 8
  %28 = load i32, ptr %7, align 4
  %29 = call zeroext i8 @tvb_get_uint8(ptr noundef %27, i32 noundef %28)
  %30 = zext i8 %29 to i32
  %31 = add i32 1, %30
  %32 = load i32, ptr %7, align 4
  %33 = add i32 %32, %31
  store i32 %33, ptr %7, align 4
  %34 = load ptr, ptr %8, align 8
  %35 = load i32, ptr @hf_amqp_method_queue_declare_ok_message_count, align 4
  %36 = load ptr, ptr %5, align 8
  %37 = load i32, ptr %7, align 4
  %38 = call ptr @proto_tree_add_item(ptr noundef %34, i32 noundef %35, ptr noundef %36, i32 noundef %37, i32 noundef 4, i32 noundef 0)
  %39 = load i32, ptr %7, align 4
  %40 = add i32 %39, 4
  store i32 %40, ptr %7, align 4
  %41 = load ptr, ptr %8, align 8
  %42 = load i32, ptr @hf_amqp_method_queue_declare_ok_consumer_count, align 4
  %43 = load ptr, ptr %5, align 8
  %44 = load i32, ptr %7, align 4
  %45 = call ptr @proto_tree_add_item(ptr noundef %41, i32 noundef %42, ptr noundef %43, i32 noundef %44, i32 noundef 4, i32 noundef 0)
  %46 = load i32, ptr %7, align 4
  %47 = add i32 %46, 4
  store i32 %47, ptr %7, align 4
  %48 = load i32, ptr %7, align 4
  call void @llvm.lifetime.end.p0(i64 8, ptr %9) #11
  ret i32 %48
}