; Function Attrs: null_pointer_is_valid sspstrong uwtable
define internal fastcc void @dissect_amqp_0_9_method_queue_declare_ok(ptr noundef %0, ptr noundef readonly captures(none) %1, ptr noundef %2) unnamed_addr #0 {
  %4 = alloca ptr, align 8
  call void @llvm.lifetime.start.p0(i64 8, ptr nonnull %4) #14
  %5 = load i32, ptr @hf_amqp_method_queue_declare_ok_queue, align 4
  %6 = tail call zeroext i8 @tvb_get_uint8(ptr noundef %0, i32 noundef 11)
  %7 = zext i8 %6 to i32
  %8 = getelementptr inbounds nuw i8, ptr %1, i64 408
  %9 = load ptr, ptr %8, align 8
  %10 = call ptr @proto_tree_add_item_ret_string(ptr noundef %2, i32 noundef %5, ptr noundef %0, i32 noundef 12, i32 noundef %7, i32 noundef 0, ptr noundef %9, ptr noundef nonnull %4)
  %11 = getelementptr inbounds nuw i8, ptr %1, i64 8
  %12 = load ptr, ptr %11, align 8
  %13 = load ptr, ptr %4, align 8
  call void (ptr, i32, ptr, ...) @col_append_fstr(ptr noundef %12, i32 noundef 25, ptr noundef nonnull @.str.1479, ptr noundef %13)
  %14 = call zeroext i8 @tvb_get_uint8(ptr noundef %0, i32 noundef 11)
  %15 = zext i8 %14 to i32
  %16 = add nuw nsw i32 %15, 12
  %17 = load i32, ptr @hf_amqp_method_queue_declare_ok_message_count, align 4
  %18 = call ptr @proto_tree_add_item(ptr noundef %2, i32 noundef %17, ptr noundef %0, i32 noundef %16, i32 noundef 4, i32 noundef 0)
  %19 = add nuw nsw i32 %15, 16
  %20 = load i32, ptr @hf_amqp_method_queue_declare_ok_consumer_count, align 4
  %21 = call ptr @proto_tree_add_item(ptr noundef %2, i32 noundef %20, ptr noundef %0, i32 noundef %19, i32 noundef 4, i32 noundef 0)
  call void @llvm.lifetime.end.p0(i64 8, ptr nonnull %4) #14
  ret void
}